Certificate:
    Data:
        Version: 3 (0x2)
        Serial Number: 2 (0x2)
    Signature Algorithm: sha256WithRSAEncryption
        Issuer: C=FR, ST=Radius, L=Somewhere, O=Example Inc./emailAddress=admin@example.org, CN=Example Certificate Authority
        Validity
            Not Before: May  3 12:27:44 2017 GMT
            Not After : Jul  2 12:27:44 2017 GMT
        Subject: C=FR, ST=Radius, O=Example Inc., CN=user@example.org/emailAddress=user@example.org
        Subject Public Key Info:
            Public Key Algorithm: rsaEncryption
                Public-Key: (2048 bit)
                Modulus:
                    00:e5:42:88:39:67:c2:77:a0:a6:54:84:ec:0e:60:
                    f6:bc:3a:d8:a6:fa:a9:a9:09:d3:d1:26:37:46:5f:
                    e2:29:d6:fb:5c:2e:cf:6d:b1:15:c9:6e:dd:67:65:
                    fc:2a:83:ef:f4:2f:98:3b:ef:d5:ae:71:42:ec:d7:
                    70:9e:23:e5:1f:50:5d:cb:0e:47:1f:93:3d:bc:ef:
                    74:6c:eb:b6:81:a6:4a:c2:3f:e3:0e:f5:3b:1b:db:
                    c2:8f:f0:17:12:33:16:83:17:0a:0f:3a:65:51:5c:
                    3b:b0:b3:f8:b5:d4:65:87:d2:64:90:c5:12:2c:ca:
                    33:c6:4e:72:5e:65:03:8f:c0:dc:be:5b:53:0b:63:
                    a9:7b:3d:a6:00:0e:5f:5c:d8:8c:6d:43:74:a5:b2:
                    97:a9:6b:a5:6f:a3:8f:e6:4a:6d:02:99:6f:e8:26:
                    71:23:fa:06:07:41:c2:8f:15:68:8b:d2:49:f7:53:
                    80:85:87:11:8d:b3:e9:42:2a:f0:c6:2e:c5:71:dc:
                    7a:96:54:fe:06:2b:48:8a:c4:2d:c3:7b:da:03:55:
                    1c:a5:1a:fb:18:34:1c:59:90:36:18:ff:00:e7:3f:
                    be:4e:5a:3d:c6:e9:75:e6:77:20:65:77:37:f7:2b:
                    d4:e7:88:92:35:dc:76:ce:19:a5:8b:42:cc:70:7d:
                    6d:45
                Exponent: 65537 (0x10001)
        X509v3 extensions:
            X509v3 Extended Key Usage: 
                TLS Web Client Authentication
            X509v3 CRL Distribution Points: 

                Full Name:
                  URI:http://www.example.com/example_ca.crl

    Signature Algorithm: sha256WithRSAEncryption
         0e:ad:e6:6a:8b:d6:0f:c1:f8:2a:36:5d:fa:89:82:6e:44:b0:
         ad:3f:f9:a6:39:a2:02:a3:90:b5:83:b2:d8:a1:b1:b7:1b:03:
         ee:b9:00:1e:62:40:25:5c:c6:be:29:a6:f1:e5:fc:ef:c0:70:
         56:24:b3:72:6c:e7:fe:2c:71:98:bf:87:1b:35:08:a3:ca:2c:
         d8:28:e1:61:9d:1d:32:94:79:0f:09:ca:53:ed:16:6f:51:e4:
         21:0f:3b:1f:bc:95:91:a0:c6:3a:05:71:b8:25:d0:5c:f2:a0:
         ad:41:5f:31:a5:5d:ea:99:bc:b6:d8:ba:4b:8a:e8:53:65:a2:
         83:f8:cd:ce:7f:e9:b6:70:5d:4c:7c:9f:e1:71:fc:45:9c:23:
         7f:9d:04:40:af:39:5e:c3:48:22:91:8f:0a:2a:61:d0:49:39:
         85:16:7c:0e:d6:23:1a:d4:dc:0b:44:e6:81:30:30:b1:44:7f:
         f3:58:ce:fa:46:ac:ea:e8:1d:9e:af:a6:ba:83:a1:9f:3a:ee:
         0a:24:35:57:94:19:9f:de:dd:ea:ad:ab:0e:81:76:1f:86:70:
         80:7f:77:e9:01:ec:02:31:74:2d:fd:2c:86:4a:c7:a2:56:2a:
         20:fa:86:ea:fb:88:93:81:35:f1:61:3a:42:5c:c6:1a:70:3e:
         cd:20:57:8e
-----BEGIN CERTIFICATE-----
MIIDzzCCAregAwIBAgIBAjANBgkqhkiG9w0BAQsFADCBkzELMAkGA1UEBhMCRlIx
DzANBgNVBAgMBlJhZGl1czESMBAGA1UEBwwJU29tZXdoZXJlMRUwEwYDVQQKDAxF
eGFtcGxlIEluYy4xIDAeBgkqhkiG9w0BCQEWEWFkbWluQGV4YW1wbGUub3JnMSYw
JAYDVQQDDB1FeGFtcGxlIENlcnRpZmljYXRlIEF1dGhvcml0eTAeFw0xNzA1MDMx
MjI3NDRaFw0xNzA3MDIxMjI3NDRaMHExCzAJBgNVBAYTAkZSMQ8wDQYDVQQIDAZS
YWRpdXMxFTATBgNVBAoMDEV4YW1wbGUgSW5jLjEZMBcGA1UEAwwQdXNlckBleGFt
cGxlLm9yZzEfMB0GCSqGSIb3DQEJARYQdXNlckBleGFtcGxlLm9yZzCCASIwDQYJ
KoZIhvcNAQEBBQADggEPADCCAQoCggEBAOVCiDlnwnegplSE7A5g9rw62Kb6qakJ
09EmN0Zf4inW+1wuz22xFclu3Wdl/CqD7/QvmDvv1a5xQuzXcJ4j5R9QXcsORx+T
PbzvdGzrtoGmSsI/4w71Oxvbwo/wFxIzFoMXCg86ZVFcO7Cz+LXUZYfSZJDFEizK
M8ZOcl5lA4/A3L5bUwtjqXs9pgAOX1zYjG1DdKWyl6lrpW+jj+ZKbQKZb+gmcSP6
BgdBwo8VaIvSSfdTgIWHEY2z6UIq8MYuxXHcepZU/gYrSIrELcN72gNVHKUa+xg0
HFmQNhj/AOc/vk5aPcbpdeZ3IGV3N/cr1OeIkjXcds4ZpYtCzHB9bUUCAwEAAaNP
ME0wEwYDVR0lBAwwCgYIKwYBBQUHAwIwNgYDVR0fBC8wLTAroCmgJ4YlaHR0cDov
L3d3dy5leGFtcGxlLmNvbS9leGFtcGxlX2NhLmNybDANBgkqhkiG9w0BAQsFAAOC
AQEADq3maovWD8H4KjZd+omCbkSwrT/5pjmiAqOQtYOy2KGxtxsD7rkAHmJAJVzG
vimm8eX878BwViSzcmzn/ixxmL+HGzUIo8os2CjhYZ0dMpR5DwnKU+0Wb1HkIQ87
H7yVkaDGOgVxuCXQXPKgrUFfMaVd6pm8tti6S4roU2Wig/jNzn/ptnBdTHyf4XH8
RZwjf50EQK85XsNIIpGPCiph0Ek5hRZ8DtYjGtTcC0TmgTAwsUR/81jO+kas6ugd
nq+muoOhnzruCiQ1V5QZn97d6q2rDoF2H4ZwgH936QHsAjF0Lf0shkrHolYqIPqG
6vuIk4E18WE6QlzGGnA+zSBXjg==
-----END CERTIFICATE-----
