Certificate:
    Data:
        Version: 3 (0x2)
        Serial Number: 1 (0x1)
    Signature Algorithm: sha256WithRSAEncryption
        Issuer: C=FR, ST=Radius, L=Somewhere, O=Example Inc./emailAddress=admin@example.org, CN=Example Certificate Authority
        Validity
            Not Before: May  3 12:27:44 2017 GMT
            Not After : Jul  2 12:27:44 2017 GMT
        Subject: C=FR, ST=Radius, O=Example Inc., CN=Example Server Certificate/emailAddress=admin@example.org
        Subject Public Key Info:
            Public Key Algorithm: rsaEncryption
                Public-Key: (2048 bit)
                Modulus:
                    00:a7:6b:6d:64:77:80:05:ef:31:3a:b6:57:64:33:
                    32:6d:30:1b:89:2e:55:1d:c9:17:d0:6c:33:66:53:
                    70:82:c4:58:e2:3a:24:42:25:71:cc:a8:7a:c0:d8:
                    99:34:8d:e7:48:00:a8:0f:19:36:4f:78:8a:87:2e:
                    7c:3a:e4:d4:86:47:91:cc:16:3f:10:f3:15:b3:b8:
                    c4:0c:46:a4:be:d7:13:a5:5b:44:9e:c4:57:af:84:
                    56:2c:ad:3d:9f:5e:9a:ca:d4:94:a3:ac:b7:31:0d:
                    66:58:c8:30:8e:01:c3:95:69:f4:7f:7d:02:0b:74:
                    92:6e:90:a9:91:54:d9:c4:57:2b:db:62:87:93:2e:
                    01:e7:43:4b:1c:8b:2c:a7:14:0f:ef:f0:29:9e:0f:
                    e5:20:8d:b1:6c:86:2e:98:7b:c1:cd:b6:da:67:9f:
                    d3:2f:4a:ff:b3:86:96:1a:05:b7:32:53:ab:aa:34:
                    57:15:84:ac:5a:eb:71:b0:9d:d5:e1:1e:14:70:9e:
                    8f:2a:5e:26:b5:1b:c0:b1:ed:4e:80:0e:b0:32:2b:
                    d2:7c:3d:02:ce:a8:e9:2e:44:c8:dd:c7:3f:f3:f5:
                    8b:cd:54:55:de:0e:41:4c:f0:c6:46:c1:56:6a:a1:
                    c1:3e:a8:ca:97:e0:59:b2:97:bc:f2:13:b2:2c:15:
                    64:1d
                Exponent: 65537 (0x10001)
        X509v3 extensions:
            X509v3 Extended Key Usage: 
                TLS Web Server Authentication
            X509v3 CRL Distribution Points: 

                Full Name:
                  URI:http://www.example.com/example_ca.crl

    Signature Algorithm: sha256WithRSAEncryption
         b4:a3:63:89:20:e2:9c:1c:72:84:90:91:ee:4c:94:a0:00:13:
         e0:13:13:6e:b6:cb:ba:16:21:de:d0:33:e5:b5:a7:25:56:63:
         4d:dc:a8:d5:b1:17:7f:eb:5e:83:60:6f:0b:54:32:a1:4c:6a:
         19:c9:40:6c:ac:eb:c4:02:21:ff:32:4b:37:bd:04:da:4c:4f:
         c4:41:56:78:32:5c:26:1f:54:ec:e6:44:7a:2b:7f:9e:5b:98:
         9b:d7:cf:61:fc:b7:f8:3a:2a:98:67:9c:2d:a9:83:97:76:8d:
         e9:54:c8:c8:a2:b5:7b:fc:8b:d1:af:9c:eb:25:87:25:7a:bd:
         af:08:09:b8:f1:ce:43:f9:33:1c:24:64:f1:b3:7c:d1:5b:fa:
         ea:be:cb:16:e1:1e:ea:c3:55:a6:b0:3d:11:70:ef:9a:1e:3c:
         84:50:08:b3:95:0c:e8:fb:4f:d1:5b:ee:8e:96:7d:c6:b9:7d:
         01:6d:8e:ed:ca:c0:e7:ed:c2:a6:77:da:b3:3f:74:26:d2:7b:
         2b:1e:1a:d1:b2:34:cf:db:a3:4e:be:db:98:4f:5f:50:9a:21:
         08:f3:58:09:58:bd:db:51:6a:ac:74:b5:ee:2e:7e:8f:1b:d6:
         c1:16:f8:11:5b:e2:ed:ba:62:c5:d2:2c:40:ec:a4:17:1b:ec:
         ba:3b:6b:3c
-----BEGIN CERTIFICATE-----
MIID2jCCAsKgAwIBAgIBATANBgkqhkiG9w0BAQsFADCBkzELMAkGA1UEBhMCRlIx
DzANBgNVBAgMBlJhZGl1czESMBAGA1UEBwwJU29tZXdoZXJlMRUwEwYDVQQKDAxF
eGFtcGxlIEluYy4xIDAeBgkqhkiG9w0BCQEWEWFkbWluQGV4YW1wbGUub3JnMSYw
JAYDVQQDDB1FeGFtcGxlIENlcnRpZmljYXRlIEF1dGhvcml0eTAeFw0xNzA1MDMx
MjI3NDRaFw0xNzA3MDIxMjI3NDRaMHwxCzAJBgNVBAYTAkZSMQ8wDQYDVQQIDAZS
YWRpdXMxFTATBgNVBAoMDEV4YW1wbGUgSW5jLjEjMCEGA1UEAwwaRXhhbXBsZSBT
ZXJ2ZXIgQ2VydGlmaWNhdGUxIDAeBgkqhkiG9w0BCQEWEWFkbWluQGV4YW1wbGUu
b3JnMIIBIjANBgkqhkiG9w0BAQEFAAOCAQ8AMIIBCgKCAQEAp2ttZHeABe8xOrZX
ZDMybTAbiS5VHckX0GwzZlNwgsRY4jokQiVxzKh6wNiZNI3nSACoDxk2T3iKhy58
OuTUhkeRzBY/EPMVs7jEDEakvtcTpVtEnsRXr4RWLK09n16aytSUo6y3MQ1mWMgw
jgHDlWn0f30CC3SSbpCpkVTZxFcr22KHky4B50NLHIsspxQP7/Apng/lII2xbIYu
mHvBzbbaZ5/TL0r/s4aWGgW3MlOrqjRXFYSsWutxsJ3V4R4UcJ6PKl4mtRvAse1O
gA6wMivSfD0CzqjpLkTI3cc/8/WLzVRV3g5BTPDGRsFWaqHBPqjKl+BZspe88hOy
LBVkHQIDAQABo08wTTATBgNVHSUEDDAKBggrBgEFBQcDATA2BgNVHR8ELzAtMCug
KaAnhiVodHRwOi8vd3d3LmV4YW1wbGUuY29tL2V4YW1wbGVfY2EuY3JsMA0GCSqG
SIb3DQEBCwUAA4IBAQC0o2OJIOKcHHKEkJHuTJSgABPgExNutsu6FiHe0DPltacl
VmNN3KjVsRd/616DYG8LVDKhTGoZyUBsrOvEAiH/Mks3vQTaTE/EQVZ4MlwmH1Ts
5kR6K3+eW5ib189h/Lf4OiqYZ5wtqYOXdo3pVMjIorV7/IvRr5zrJYcler2vCAm4
8c5D+TMcJGTxs3zRW/rqvssW4R7qw1WmsD0RcO+aHjyEUAizlQzo+0/RW+6Oln3G
uX0BbY7tysDn7cKmd9qzP3Qm0nsrHhrRsjTP26NOvtuYT19QmiEI81gJWL3bUWqs
dLXuLn6PG9bBFvgRW+LtumLF0ixA7KQXG+y6O2s8
-----END CERTIFICATE-----
